target datalayout = "e-m:e-p270:32:32-p271:32:32-p272:64:64-i64:64-i128:128-f80:128-n8:16:32:64-S128"
target triple = "x86_64-pc-linux-gnu"

%struct.redisContextFuncs = type { ptr, ptr, ptr, ptr, ptr, ptr }
%struct.redisReply = type { i32, i64, double, i64, ptr, [4 x i8], i64, ptr }
%struct.redisContext = type { ptr, i32, [128 x i8], i32, i32, ptr, ptr, i32, ptr, ptr, %struct.anon, %struct.anon.0, ptr, i64, ptr, ptr, ptr, ptr }
%struct.anon = type { ptr, ptr, i32 }
%struct.anon.0 = type { ptr }
%struct.redisReader = type { i32, [128 x i8], ptr, i64, i64, i64, i64, ptr, i32, i32, ptr, ptr, ptr }

; Function Attrs: nounwind uwtable
define void @__redisSetError(ptr noundef %0, i32 noundef %1, ptr noundef %2) #0 {
  %4 = alloca ptr, align 8
  %5 = alloca i32, align 4
  %6 = alloca ptr, align 8
  %7 = alloca i64, align 8
  store ptr %0, ptr %4, align 8, !tbaa !40
  store i32 %1, ptr %5, align 4, !tbaa !29
  store ptr %2, ptr %6, align 8, !tbaa !26
  call void @llvm.lifetime.start.p0(i64 8, ptr %7) #10
  %8 = load i32, ptr %5, align 4, !tbaa !29
  %9 = load ptr, ptr %4, align 8, !tbaa !40
  %10 = getelementptr inbounds nuw %struct.redisContext, ptr %9, i32 0, i32 1
  store i32 %8, ptr %10, align 8, !tbaa !42
  %11 = load ptr, ptr %6, align 8, !tbaa !26
  %12 = icmp ne ptr %11, null
  br i1 %12, label %13, label %32

13:                                               ; preds = %3
  %14 = load ptr, ptr %6, align 8, !tbaa !26
  %15 = call i64 @strlen(ptr noundef %14) #11
  store i64 %15, ptr %7, align 8, !tbaa !19
  %16 = load i64, ptr %7, align 8, !tbaa !19
  %17 = icmp ult i64 %16, 127
  br i1 %17, label %18, label %20

18:                                               ; preds = %13
  %19 = load i64, ptr %7, align 8, !tbaa !19
  br label %21

20:                                               ; preds = %13
  br label %21

21:                                               ; preds = %20, %18
  %22 = phi i64 [ %19, %18 ], [ 127, %20 ]
  store i64 %22, ptr %7, align 8, !tbaa !19
  %23 = load ptr, ptr %4, align 8, !tbaa !40
  %24 = getelementptr inbounds nuw %struct.redisContext, ptr %23, i32 0, i32 2
  %25 = getelementptr inbounds [128 x i8], ptr %24, i64 0, i64 0
  %26 = load ptr, ptr %6, align 8, !tbaa !26
  %27 = load i64, ptr %7, align 8, !tbaa !19
  call void @llvm.memcpy.p0.p0.i64(ptr align 4 %25, ptr align 1 %26, i64 %27, i1 false)
  %28 = load ptr, ptr %4, align 8, !tbaa !40
  %29 = getelementptr inbounds nuw %struct.redisContext, ptr %28, i32 0, i32 2
  %30 = load i64, ptr %7, align 8, !tbaa !19
  %31 = getelementptr inbounds nuw [128 x i8], ptr %29, i64 0, i64 %30
  store i8 0, ptr %31, align 1, !tbaa !30
  br label %39

32:                                               ; preds = %3
  %33 = call ptr @__errno_location() #12
  %34 = load i32, ptr %33, align 4, !tbaa !29
  %35 = load ptr, ptr %4, align 8, !tbaa !40
  %36 = getelementptr inbounds nuw %struct.redisContext, ptr %35, i32 0, i32 2
  %37 = getelementptr inbounds [128 x i8], ptr %36, i64 0, i64 0
  %38 = call i32 @__xpg_strerror_r(i32 noundef %34, ptr noundef %37, i64 noundef 128) #10
  br label %39

39:                                               ; preds = %32, %21
  call void @llvm.lifetime.end.p0(i64 8, ptr %7) #10
  ret void
}

; Function Attrs: nounwind uwtable
define internal i32 @redisHandledPushReply(ptr noundef %0, ptr noundef %1) #0 {
  %3 = alloca i32, align 4
  %4 = alloca ptr, align 8
  %5 = alloca ptr, align 8
  store ptr %0, ptr %4, align 8, !tbaa !40
  store ptr %1, ptr %5, align 8, !tbaa !4
  %6 = load ptr, ptr %5, align 8, !tbaa !4
  %7 = icmp ne ptr %6, null
  br i1 %7, label %8, label %26

8:                                                ; preds = %2
  %9 = load ptr, ptr %4, align 8, !tbaa !40
  %10 = getelementptr inbounds nuw %struct.redisContext, ptr %9, i32 0, i32 17
  %11 = load ptr, ptr %10, align 8, !tbaa !77
  %12 = icmp ne ptr %11, null
  br i1 %12, label %13, label %26

13:                                               ; preds = %8
  %14 = load ptr, ptr %5, align 8, !tbaa !4
  %15 = getelementptr inbounds nuw %struct.redisReply, ptr %14, i32 0, i32 0
  %16 = load i32, ptr %15, align 8, !tbaa !10
  %17 = icmp eq i32 %16, 12
  br i1 %17, label %18, label %26

18:                                               ; preds = %13
  %19 = load ptr, ptr %4, align 8, !tbaa !40
  %20 = getelementptr inbounds nuw %struct.redisContext, ptr %19, i32 0, i32 17
  %21 = load ptr, ptr %20, align 8, !tbaa !77
  %22 = load ptr, ptr %4, align 8, !tbaa !40
  %23 = getelementptr inbounds nuw %struct.redisContext, ptr %22, i32 0, i32 14
  %24 = load ptr, ptr %23, align 8, !tbaa !61
  %25 = load ptr, ptr %5, align 8, !tbaa !4
  call void %21(ptr noundef %24, ptr noundef %25)
  store i32 1, ptr %3, align 4
  br label %27

26:                                               ; preds = %13, %8, %2
  store i32 0, ptr %3, align 4
  br label %27

27:                                               ; preds = %26, %18
  %28 = load i32, ptr %3, align 4
  ret i32 %28
}

; Function Attrs: nounwind uwtable
define i32 @redisGetReplyFromReader(ptr noundef %0, ptr noundef %1) #0 {
  %3 = alloca i32, align 4
  %4 = alloca ptr, align 8
  %5 = alloca ptr, align 8
  store ptr %0, ptr %4, align 8, !tbaa !40
  store ptr %1, ptr %5, align 8, !tbaa !4
  %6 = load ptr, ptr %4, align 8, !tbaa !40
  %7 = getelementptr inbounds nuw %struct.redisContext, ptr %6, i32 0, i32 6
  %8 = load ptr, ptr %7, align 8, !tbaa !54
  %9 = load ptr, ptr %5, align 8, !tbaa !4
  %10 = call i32 @redisReaderGetReply(ptr noundef %8, ptr noundef %9)
  %11 = icmp eq i32 %10, -1
  br i1 %11, label %12, label %24

12:                                               ; preds = %2
  %13 = load ptr, ptr %4, align 8, !tbaa !40
  %14 = load ptr, ptr %4, align 8, !tbaa !40
  %15 = getelementptr inbounds nuw %struct.redisContext, ptr %14, i32 0, i32 6
  %16 = load ptr, ptr %15, align 8, !tbaa !54
  %17 = getelementptr inbounds nuw %struct.redisReader, ptr %16, i32 0, i32 0
  %18 = load i32, ptr %17, align 8, !tbaa !79
  %19 = load ptr, ptr %4, align 8, !tbaa !40
  %20 = getelementptr inbounds nuw %struct.redisContext, ptr %19, i32 0, i32 6
  %21 = load ptr, ptr %20, align 8, !tbaa !54
  %22 = getelementptr inbounds nuw %struct.redisReader, ptr %21, i32 0, i32 1
  %23 = getelementptr inbounds [128 x i8], ptr %22, i64 0, i64 0
  call void @__redisSetError(ptr noundef %13, i32 noundef %18, ptr noundef %23)
  store i32 -1, ptr %3, align 4
  br label %25

24:                                               ; preds = %2
  store i32 0, ptr %3, align 4
  br label %25

25:                                               ; preds = %24, %12
  %26 = load i32, ptr %3, align 4
  ret i32 %26
}

; Function Attrs: nounwind uwtable
define i32 @redisBufferRead(ptr noundef %0) #0 {
  %2 = alloca i32, align 4
  %3 = alloca ptr, align 8
  %4 = alloca [16384 x i8], align 16
  %5 = alloca i32, align 4
  %6 = alloca i32, align 4
  store ptr %0, ptr %3, align 8, !tbaa !40
  call void @llvm.lifetime.start.p0(i64 16384, ptr %4) #10
  call void @llvm.lifetime.start.p0(i64 4, ptr %5) #10
  %7 = load ptr, ptr %3, align 8, !tbaa !40
  %8 = getelementptr inbounds nuw %struct.redisContext, ptr %7, i32 0, i32 1
  %9 = load i32, ptr %8, align 8, !tbaa !42
  %10 = icmp ne i32 %9, 0
  br i1 %10, label %11, label %12

11:                                               ; preds = %1
  store i32 -1, ptr %2, align 4
  store i32 1, ptr %6, align 4
  br label %50

12:                                               ; preds = %1
  %13 = load ptr, ptr %3, align 8, !tbaa !40
  %14 = getelementptr inbounds nuw %struct.redisContext, ptr %13, i32 0, i32 0
  %15 = load ptr, ptr %14, align 8, !tbaa !50
  %16 = getelementptr inbounds nuw %struct.redisContextFuncs, ptr %15, i32 0, i32 4
  %17 = load ptr, ptr %16, align 8, !tbaa !78
  %18 = load ptr, ptr %3, align 8, !tbaa !40
  %19 = getelementptr inbounds [16384 x i8], ptr %4, i64 0, i64 0
  %20 = call i64 %17(ptr noundef %18, ptr noundef %19, i64 noundef 16384)
  %21 = trunc i64 %20 to i32
  store i32 %21, ptr %5, align 4, !tbaa !29
  %22 = load i32, ptr %5, align 4, !tbaa !29
  %23 = icmp slt i32 %22, 0
  br i1 %23, label %24, label %25

24:                                               ; preds = %12
  store i32 -1, ptr %2, align 4
  store i32 1, ptr %6, align 4
  br label %50

25:                                               ; preds = %12
  %26 = load i32, ptr %5, align 4, !tbaa !29
  %27 = icmp sgt i32 %26, 0
  br i1 %27, label %28, label %49

28:                                               ; preds = %25
  %29 = load ptr, ptr %3, align 8, !tbaa !40
  %30 = getelementptr inbounds nuw %struct.redisContext, ptr %29, i32 0, i32 6
  %31 = load ptr, ptr %30, align 8, !tbaa !54
  %32 = getelementptr inbounds [16384 x i8], ptr %4, i64 0, i64 0
  %33 = load i32, ptr %5, align 4, !tbaa !29
  %34 = sext i32 %33 to i64
  %35 = call i32 @redisReaderFeed(ptr noundef %31, ptr noundef %32, i64 noundef %34)
  %36 = icmp ne i32 %35, 0
  br i1 %36, label %37, label %49

37:                                               ; preds = %28
  %38 = load ptr, ptr %3, align 8, !tbaa !40
  %39 = load ptr, ptr %3, align 8, !tbaa !40
  %40 = getelementptr inbounds nuw %struct.redisContext, ptr %39, i32 0, i32 6
  %41 = load ptr, ptr %40, align 8, !tbaa !54
  %42 = getelementptr inbounds nuw %struct.redisReader, ptr %41, i32 0, i32 0
  %43 = load i32, ptr %42, align 8, !tbaa !79
  %44 = load ptr, ptr %3, align 8, !tbaa !40
  %45 = getelementptr inbounds nuw %struct.redisContext, ptr %44, i32 0, i32 6
  %46 = load ptr, ptr %45, align 8, !tbaa !54
  %47 = getelementptr inbounds nuw %struct.redisReader, ptr %46, i32 0, i32 1
  %48 = getelementptr inbounds [128 x i8], ptr %47, i64 0, i64 0
  call void @__redisSetError(ptr noundef %38, i32 noundef %43, ptr noundef %48)
  store i32 -1, ptr %2, align 4
  store i32 1, ptr %6, align 4
  br label %50

49:                                               ; preds = %28, %25
  store i32 0, ptr %2, align 4
  store i32 1, ptr %6, align 4
  br label %50

50:                                               ; preds = %49, %37, %24, %11
  call void @llvm.lifetime.end.p0(i64 4, ptr %5) #10
  call void @llvm.lifetime.end.p0(i64 16384, ptr %4) #10
  %51 = load i32, ptr %2, align 4
  ret i32 %51
}

; Function Attrs: nounwind uwtable
define internal i32 @redisNextInBandReplyFromReader(ptr noundef %0, ptr noundef %1) #0 {
  %3 = alloca i32, align 4
  %4 = alloca ptr, align 8
  %5 = alloca ptr, align 8
  store ptr %0, ptr %4, align 8, !tbaa !40
  store ptr %1, ptr %5, align 8, !tbaa !4
  br label %6

6:                                                ; preds = %13, %2
  %7 = load ptr, ptr %4, align 8, !tbaa !40
  %8 = load ptr, ptr %5, align 8, !tbaa !4
  %9 = call i32 @redisGetReplyFromReader(ptr noundef %7, ptr noundef %8)
  %10 = icmp eq i32 %9, -1
  br i1 %10, label %11, label %12

11:                                               ; preds = %6
  store i32 -1, ptr %3, align 4
  br label %20

12:                                               ; preds = %6
  br label %13

13:                                               ; preds = %12
  %14 = load ptr, ptr %4, align 8, !tbaa !40
  %15 = load ptr, ptr %5, align 8, !tbaa !4
  %16 = load ptr, ptr %15, align 8, !tbaa !4
  %17 = call i32 @redisHandledPushReply(ptr noundef %14, ptr noundef %16)
  %18 = icmp ne i32 %17, 0
  br i1 %18, label %6, label %19

19:                                               ; preds = %13
  store i32 0, ptr %3, align 4
  br label %20

20:                                               ; preds = %19, %11
  %21 = load i32, ptr %3, align 4
  ret i32 %21
}

; Function Attrs: nounwind uwtable
define i32 @redisGetReply(ptr noundef %0, ptr noundef %1) #0 {
  %3 = alloca i32, align 4
  %4 = alloca ptr, align 8
  %5 = alloca ptr, align 8
  %6 = alloca i32, align 4
  %7 = alloca ptr, align 8
  %8 = alloca i32, align 4
  store ptr %0, ptr %4, align 8, !tbaa !40
  store ptr %1, ptr %5, align 8, !tbaa !4
  call void @llvm.lifetime.start.p0(i64 4, ptr %6) #10
  store i32 0, ptr %6, align 4, !tbaa !29
  call void @llvm.lifetime.start.p0(i64 8, ptr %7) #10
  store ptr null, ptr %7, align 8, !tbaa !4
  %9 = load ptr, ptr %4, align 8, !tbaa !40
  %10 = call i32 @redisNextInBandReplyFromReader(ptr noundef %9, ptr noundef %7)
  %11 = icmp eq i32 %10, -1
  br i1 %11, label %12, label %13

12:                                               ; preds = %2
  store i32 -1, ptr %3, align 4
  store i32 1, ptr %8, align 4
  br label %58

13:                                               ; preds = %2
  %14 = load ptr, ptr %7, align 8, !tbaa !4
  %15 = icmp eq ptr %14, null
  br i1 %15, label %16, label %49

16:                                               ; preds = %13
  %17 = load ptr, ptr %4, align 8, !tbaa !40
  %18 = getelementptr inbounds nuw %struct.redisContext, ptr %17, i32 0, i32 4
  %19 = load i32, ptr %18, align 8, !tbaa !68
  %20 = and i32 %19, 1
  %21 = icmp ne i32 %20, 0
  br i1 %21, label %22, label %49

22:                                               ; preds = %16
  br label %23

23:                                               ; preds = %29, %22
  %24 = load ptr, ptr %4, align 8, !tbaa !40
  %25 = call i32 @redisBufferWrite(ptr noundef %24, ptr noundef %6)
  %26 = icmp eq i32 %25, -1
  br i1 %26, label %27, label %28

27:                                               ; preds = %23
  store i32 -1, ptr %3, align 4
  store i32 1, ptr %8, align 4
  br label %58

28:                                               ; preds = %23
  br label %29

29:                                               ; preds = %28
  %30 = load i32, ptr %6, align 4, !tbaa !29
  %31 = icmp ne i32 %30, 0
  %32 = xor i1 %31, true
  br i1 %32, label %23, label %33

33:                                               ; preds = %29
  br label %34

34:                                               ; preds = %45, %33
  %35 = load ptr, ptr %4, align 8, !tbaa !40
  %36 = call i32 @redisBufferRead(ptr noundef %35)
  %37 = icmp eq i32 %36, -1
  br i1 %37, label %38, label %39

38:                                               ; preds = %34
  store i32 -1, ptr %3, align 4
  store i32 1, ptr %8, align 4
  br label %58

39:                                               ; preds = %34
  %40 = load ptr, ptr %4, align 8, !tbaa !40
  %41 = call i32 @redisNextInBandReplyFromReader(ptr noundef %40, ptr noundef %7)
  %42 = icmp eq i32 %41, -1
  br i1 %42, label %43, label %44

43:                                               ; preds = %39
  store i32 -1, ptr %3, align 4
  store i32 1, ptr %8, align 4
  br label %58

44:                                               ; preds = %39
  br label %45

45:                                               ; preds = %44
  %46 = load ptr, ptr %7, align 8, !tbaa !4
  %47 = icmp eq ptr %46, null
  br i1 %47, label %34, label %48

48:                                               ; preds = %45
  br label %49

49:                                               ; preds = %48, %16, %13
  %50 = load ptr, ptr %5, align 8, !tbaa !4
  %51 = icmp ne ptr %50, null
  br i1 %51, label %52, label %55

52:                                               ; preds = %49
  %53 = load ptr, ptr %7, align 8, !tbaa !4
  %54 = load ptr, ptr %5, align 8, !tbaa !4
  store ptr %53, ptr %54, align 8, !tbaa !4
  br label %57

55:                                               ; preds = %49
  %56 = load ptr, ptr %7, align 8, !tbaa !4
  call void @freeReplyObject(ptr noundef %56)
  br label %57

57:                                               ; preds = %55, %52
  store i32 0, ptr %3, align 4
  store i32 1, ptr %8, align 4
  br label %58

58:                                               ; preds = %57, %43, %38, %27, %12
  call void @llvm.lifetime.end.p0(i64 8, ptr %7) #10
  call void @llvm.lifetime.end.p0(i64 4, ptr %6) #10
  %59 = load i32, ptr %3, align 4
  ret i32 %59
}