; Function Attrs: nounwind uwtable
define range(i32 -1, 1) i32 @redisGetReply(ptr noundef %0, ptr noundef writeonly captures(address_is_null) %1) local_unnamed_addr #0 {
  %3 = alloca [16384 x i8], align 16
  %4 = alloca i32, align 4
  %5 = alloca ptr, align 8
  call void @llvm.lifetime.start.p0(i64 4, ptr nonnull %4) #13
  store i32 0, ptr %4, align 4, !tbaa !27
  call void @llvm.lifetime.start.p0(i64 8, ptr nonnull %5) #13
  store ptr null, ptr %5, align 8, !tbaa !75
  %6 = getelementptr inbounds nuw i8, ptr %0, i64 160
  %7 = load ptr, ptr %6, align 8, !tbaa !44
  %8 = call i32 @redisReaderGetReply(ptr noundef %7, ptr noundef nonnull %5) #13
  %9 = icmp eq i32 %8, -1
  br i1 %9, label %redisNextInBandReplyFromReader.exit, label %redisGetReplyFromReader.exit.lr.ph.i

redisGetReplyFromReader.exit.lr.ph.i:             ; preds = %2
  %10 = getelementptr inbounds nuw i8, ptr %0, i64 264
  %11 = getelementptr inbounds nuw i8, ptr %0, i64 240
  br label %redisGetReplyFromReader.exit.i

redisGetReplyFromReader.exit.i:                   ; preds = %redisHandledPushReply.exit.i, %redisGetReplyFromReader.exit.lr.ph.i
  %12 = load ptr, ptr %5, align 8, !tbaa !75
  %.not.i.i = icmp eq ptr %12, null
  br i1 %.not.i.i, label %.thread, label %13

13:                                               ; preds = %redisGetReplyFromReader.exit.i
  %14 = load ptr, ptr %10, align 8, !tbaa !63
  %.not8.i.i = icmp eq ptr %14, null
  br i1 %.not8.i.i, label %.thread20, label %15

15:                                               ; preds = %13
  %16 = load i32, ptr %12, align 8, !tbaa !4
  %17 = icmp eq i32 %16, 12
  br i1 %17, label %redisHandledPushReply.exit.i, label %.thread20

redisHandledPushReply.exit.i:                     ; preds = %15
  %18 = load ptr, ptr %11, align 8, !tbaa !51
  call void %14(ptr noundef %18, ptr noundef nonnull %12) #13
  %19 = load ptr, ptr %6, align 8, !tbaa !44
  %20 = call i32 @redisReaderGetReply(ptr noundef %19, ptr noundef nonnull %5) #13
  %21 = icmp eq i32 %20, -1
  br i1 %21, label %redisNextInBandReplyFromReader.exit, label %redisGetReplyFromReader.exit.i

redisNextInBandReplyFromReader.exit:              ; preds = %redisHandledPushReply.exit.i, %2
  %22 = load ptr, ptr %6, align 8, !tbaa !44
  %23 = load i32, ptr %22, align 8, !tbaa !70
  %24 = getelementptr inbounds nuw i8, ptr %22, i64 4
  %25 = getelementptr inbounds nuw i8, ptr %0, i64 8
  store i32 %23, ptr %25, align 8, !tbaa !32
  %26 = getelementptr inbounds nuw i8, ptr %0, i64 12
  %27 = call i64 @strlen(ptr noundef nonnull readonly dereferenceable(1) %24) #14
  %28 = call i64 @llvm.umin.i64(i64 %27, i64 127)
  call void @llvm.memcpy.p0.p0.i64(ptr nonnull align 4 %26, ptr nonnull readonly align 1 %24, i64 %28, i1 false)
  %29 = getelementptr inbounds nuw [128 x i8], ptr %26, i64 0, i64 %28
  store i8 0, ptr %29, align 1, !tbaa !22
  br label %.loopexit

.thread:                                          ; preds = %redisGetReplyFromReader.exit.i
  %30 = getelementptr inbounds nuw i8, ptr %0, i64 144
  %31 = load i32, ptr %30, align 8, !tbaa !58
  %32 = and i32 %31, 1
  %.not = icmp eq i32 %32, 0
  br i1 %.not, label %.thread20, label %.preheader

.preheader:                                       ; preds = %.thread, %35
  %33 = call i32 @redisBufferWrite(ptr noundef %0, ptr noundef nonnull %4)
  %34 = icmp eq i32 %33, -1
  br i1 %34, label %.loopexit, label %35

35:                                               ; preds = %.preheader
  %36 = load i32, ptr %4, align 4, !tbaa !27
  %.not8 = icmp eq i32 %36, 0
  br i1 %.not8, label %.preheader, label %.critedge.preheader

.critedge.preheader:                              ; preds = %35
  %37 = getelementptr inbounds nuw i8, ptr %0, i64 8
  call void @llvm.lifetime.start.p0(i64 16384, ptr nonnull %3) #13
  %38 = load i32, ptr %37, align 8, !tbaa !32
  %.not.i34 = icmp eq i32 %38, 0
  br i1 %.not.i34, label %.lr.ph, label %redisBufferRead.exit.thread

.lr.ph:                                           ; preds = %.critedge.preheader, %.critedge.backedge
  %39 = load ptr, ptr %0, align 8, !tbaa !40
  %40 = getelementptr inbounds nuw i8, ptr %39, i64 32
  %41 = load ptr, ptr %40, align 8, !tbaa !69
  %42 = call i64 %41(ptr noundef nonnull %0, ptr noundef nonnull %3, i64 noundef 16384) #13
  %43 = trunc i64 %42 to i32
  %44 = icmp slt i32 %43, 0
  br i1 %44, label %redisBufferRead.exit.thread, label %45

45:                                               ; preds = %.lr.ph
  %.not11.i = icmp eq i32 %43, 0
  br i1 %.not11.i, label %58, label %46

46:                                               ; preds = %45
  %47 = load ptr, ptr %6, align 8, !tbaa !44
  %48 = and i64 %42, 2147483647
  %49 = call i32 @redisReaderFeed(ptr noundef %47, ptr noundef nonnull %3, i64 noundef %48) #13
  %.not12.i = icmp eq i32 %49, 0
  br i1 %.not12.i, label %58, label %50

50:                                               ; preds = %46
  %51 = load ptr, ptr %6, align 8, !tbaa !44
  %52 = load i32, ptr %51, align 8, !tbaa !70
  %53 = getelementptr inbounds nuw i8, ptr %51, i64 4
  store i32 %52, ptr %37, align 8, !tbaa !32
  %54 = getelementptr inbounds nuw i8, ptr %0, i64 12
  %55 = call i64 @strlen(ptr noundef nonnull readonly dereferenceable(1) %53) #14
  %56 = call i64 @llvm.umin.i64(i64 %55, i64 127)
  call void @llvm.memcpy.p0.p0.i64(ptr nonnull align 4 %54, ptr nonnull readonly align 1 %53, i64 %56, i1 false)
  %57 = getelementptr inbounds nuw [128 x i8], ptr %54, i64 0, i64 %56
  store i8 0, ptr %57, align 1, !tbaa !22
  br label %redisBufferRead.exit.thread

redisBufferRead.exit.thread:                      ; preds = %.lr.ph, %.critedge.backedge, %.critedge.preheader, %50
  call void @llvm.lifetime.end.p0(i64 16384, ptr nonnull %3) #13
  br label %.loopexit

58:                                               ; preds = %46, %45
  call void @llvm.lifetime.end.p0(i64 16384, ptr nonnull %3) #13
  %59 = load ptr, ptr %6, align 8, !tbaa !44
  %60 = call i32 @redisReaderGetReply(ptr noundef %59, ptr noundef nonnull %5) #13
  %61 = icmp eq i32 %60, -1
  br i1 %61, label %redisNextInBandReplyFromReader.exit18, label %redisGetReplyFromReader.exit.i12

redisGetReplyFromReader.exit.i12:                 ; preds = %58, %redisHandledPushReply.exit.i16
  %62 = load ptr, ptr %5, align 8, !tbaa !75
  %.not.i.i13 = icmp eq ptr %62, null
  br i1 %.not.i.i13, label %.critedge.backedge, label %63

63:                                               ; preds = %redisGetReplyFromReader.exit.i12
  %64 = load ptr, ptr %10, align 8, !tbaa !63
  %.not8.i.i14 = icmp eq ptr %64, null
  br i1 %.not8.i.i14, label %.thread20, label %65

65:                                               ; preds = %63
  %66 = load i32, ptr %62, align 8, !tbaa !4
  %67 = icmp eq i32 %66, 12
  br i1 %67, label %redisHandledPushReply.exit.i16, label %.thread20

redisHandledPushReply.exit.i16:                   ; preds = %65
  %68 = load ptr, ptr %11, align 8, !tbaa !51
  call void %64(ptr noundef %68, ptr noundef nonnull %62) #13
  %69 = load ptr, ptr %6, align 8, !tbaa !44
  %70 = call i32 @redisReaderGetReply(ptr noundef %69, ptr noundef nonnull %5) #13
  %71 = icmp eq i32 %70, -1
  br i1 %71, label %redisNextInBandReplyFromReader.exit18, label %redisGetReplyFromReader.exit.i12

redisNextInBandReplyFromReader.exit18:            ; preds = %58, %redisHandledPushReply.exit.i16
  %72 = load ptr, ptr %6, align 8, !tbaa !44
  %73 = load i32, ptr %72, align 8, !tbaa !70
  %74 = getelementptr inbounds nuw i8, ptr %72, i64 4
  store i32 %73, ptr %37, align 8, !tbaa !32
  %75 = getelementptr inbounds nuw i8, ptr %0, i64 12
  %76 = call i64 @strlen(ptr noundef nonnull readonly dereferenceable(1) %74) #14
  %77 = call i64 @llvm.umin.i64(i64 %76, i64 127)
  call void @llvm.memcpy.p0.p0.i64(ptr nonnull align 4 %75, ptr nonnull readonly align 1 %74, i64 %77, i1 false)
  %78 = getelementptr inbounds nuw [128 x i8], ptr %75, i64 0, i64 %77
  store i8 0, ptr %78, align 1, !tbaa !22
  br label %.loopexit

.critedge.backedge:                               ; preds = %redisGetReplyFromReader.exit.i12
  call void @llvm.lifetime.start.p0(i64 16384, ptr nonnull %3) #13
  %79 = load i32, ptr %37, align 8, !tbaa !32
  %.not.i = icmp eq i32 %79, 0
  br i1 %.not.i, label %.lr.ph, label %redisBufferRead.exit.thread

.thread20:                                        ; preds = %13, %15, %65, %63, %.thread
  %80 = phi ptr [ null, %.thread ], [ %62, %63 ], [ %62, %65 ], [ %12, %15 ], [ %12, %13 ]
  %.not9 = icmp eq ptr %1, null
  br i1 %.not9, label %82, label %81

81:                                               ; preds = %.thread20
  store ptr %80, ptr %1, align 8, !tbaa !75
  br label %.loopexit

82:                                               ; preds = %.thread20
  call void @freeReplyObject(ptr noundef %80)
  br label %.loopexit

.loopexit:                                        ; preds = %.preheader, %redisNextInBandReplyFromReader.exit18, %redisBufferRead.exit.thread, %redisNextInBandReplyFromReader.exit, %81, %82
  %.0 = phi i32 [ -1, %redisNextInBandReplyFromReader.exit ], [ -1, %redisNextInBandReplyFromReader.exit18 ], [ 0, %82 ], [ 0, %81 ], [ -1, %redisBufferRead.exit.thread ], [ -1, %.preheader ]
  call void @llvm.lifetime.end.p0(i64 8, ptr nonnull %5) #13
  call void @llvm.lifetime.end.p0(i64 4, ptr nonnull %4) #13
  ret i32 %.0
}